target datalayout = "e-m:e-p270:32:32-p271:32:32-p272:64:64-i64:64-i128:128-f80:128-n8:16:32:64-S128"
target triple = "x86_64-unknown-linux-gnu"

%struct.QemuTextConsole = type { %struct.QemuConsole, i32, i32, i32, i32, i32, i32, i32, i32, ptr, [2 x i32], [2 x i32], i32, i32, i32, i32, i32, i32, ptr, %struct.Fifo8 }
%struct.QemuConsole = type { %struct.Object, i32, ptr, ptr, %struct.DisplayScanout, i32, ptr, i32, ptr, i32, %struct.QemuUIInfo, ptr, ptr, ptr, %struct.CoQueue, %union.anon.0 }
%struct.Object = type { ptr, ptr, ptr, i32, ptr }
%struct.DisplayScanout = type { i32, %union.anon }
%union.anon = type { %struct.ScanoutTexture }
%struct.ScanoutTexture = type { i32, i8, i32, i32, i32, i32, i32, i32, ptr }
%struct.QemuUIInfo = type { i16, i16, i32, i32, i32, i32, i32 }
%struct.CoQueue = type { %struct.anon }
%struct.anon = type { ptr, ptr }
%union.anon.0 = type { %struct.QTailQLink }
%struct.QTailQLink = type { ptr, ptr }
%struct.Fifo8 = type { ptr, i32, i32, i32 }
%struct.TextCell = type <{ i8, %struct.TextAttributes }>
%struct.TextAttributes = type { i16 }
%struct.DisplaySurface = type { ptr, i8 }

@.str.3 = private unnamed_addr constant [13 x i8] c"qemu-console\00", align 1
@.str.4 = private unnamed_addr constant [99 x i8] c"/home/dtcxzyw/WorkSpace/Projects/compilers/llvm-opt-benchmark/bench/qemu/qemu/include/ui/console.h\00", align 1
@.str.6 = private unnamed_addr constant [35 x i8] c"s->scanout.kind == SCANOUT_SURFACE\00", align 1
@.str.7 = private unnamed_addr constant [24 x i8] c"../qemu/ui/console-vc.c\00", align 1
@__PRETTY_FUNCTION__.text_console_resize = private unnamed_addr constant [44 x i8] c"void text_console_resize(QemuTextConsole *)\00", align 1
@__func__.QEMU_CONSOLE = private unnamed_addr constant [13 x i8] c"QEMU_CONSOLE\00", align 1

; Function Attrs: nounwind sspstrong uwtable
define internal i32 @surface_height(ptr noundef %s) #0 {
entry:
  %s.addr = alloca ptr, align 8
  store ptr %s, ptr %s.addr, align 8
  %0 = load ptr, ptr %s.addr, align 8
  %image = getelementptr inbounds %struct.DisplaySurface, ptr %0, i32 0, i32 0
  %1 = load ptr, ptr %image, align 8
  %call = call i32 @pixman_image_get_height(ptr noundef %1)
  ret i32 %call
}

; Function Attrs: nounwind sspstrong uwtable
define internal i32 @surface_width(ptr noundef %s) #0 {
entry:
  %s.addr = alloca ptr, align 8
  store ptr %s, ptr %s.addr, align 8
  %0 = load ptr, ptr %s.addr, align 8
  %image = getelementptr inbounds %struct.DisplaySurface, ptr %0, i32 0, i32 0
  %1 = load ptr, ptr %image, align 8
  %call = call i32 @pixman_image_get_width(ptr noundef %1)
  ret i32 %call
}

; Function Attrs: nounwind sspstrong uwtable
define internal ptr @QEMU_CONSOLE(ptr noundef %obj) #0 {
entry:
  %obj.addr = alloca ptr, align 8
  store ptr %obj, ptr %obj.addr, align 8
  %0 = load ptr, ptr %obj.addr, align 8
  %call = call ptr @object_dynamic_cast_assert(ptr noundef %0, ptr noundef @.str.3, ptr noundef @.str.4, i32 noundef 12, ptr noundef @__func__.QEMU_CONSOLE)
  ret ptr %call
}

; Function Attrs: nounwind sspstrong uwtable
define internal void @text_console_resize(ptr noundef %t) #0 {
entry:
  %t.addr = alloca ptr, align 8
  %s = alloca ptr, align 8
  %cells = alloca ptr, align 8
  %c = alloca ptr, align 8
  %c1 = alloca ptr, align 8
  %w1 = alloca i32, align 4
  %x = alloca i32, align 4
  %y = alloca i32, align 4
  %last_width = alloca i32, align 4
  %w = alloca i32, align 4
  %h = alloca i32, align 4
  %_a4 = alloca i32, align 4
  %_b5 = alloca i32, align 4
  %tmp = alloca i32, align 4
  %.compoundliteral = alloca %struct.TextAttributes, align 1
  store ptr %t, ptr %t.addr, align 8
  %0 = load ptr, ptr %t.addr, align 8
  %call = call ptr @QEMU_CONSOLE(ptr noundef %0)
  store ptr %call, ptr %s, align 8
  %1 = load ptr, ptr %s, align 8
  %scanout = getelementptr inbounds %struct.QemuConsole, ptr %1, i32 0, i32 4
  %kind = getelementptr inbounds %struct.DisplayScanout, ptr %scanout, i32 0, i32 0
  %2 = load i32, ptr %kind, align 8
  %cmp = icmp eq i32 %2, 1
  br i1 %cmp, label %if.then, label %if.else

if.then:                                          ; preds = %entry
  br label %if.end

if.else:                                          ; preds = %entry
  call void @__assert_fail(ptr noundef @.str.6, ptr noundef @.str.7, i32 noundef 383, ptr noundef @__PRETTY_FUNCTION__.text_console_resize) #7
  unreachable

if.end:                                           ; preds = %if.then
  %3 = load ptr, ptr %s, align 8
  %surface = getelementptr inbounds %struct.QemuConsole, ptr %3, i32 0, i32 3
  %4 = load ptr, ptr %surface, align 8
  %call1 = call i32 @surface_width(ptr noundef %4)
  %div = sdiv i32 %call1, 8
  store i32 %div, ptr %w, align 4
  %5 = load ptr, ptr %s, align 8
  %surface2 = getelementptr inbounds %struct.QemuConsole, ptr %5, i32 0, i32 3
  %6 = load ptr, ptr %surface2, align 8
  %call3 = call i32 @surface_height(ptr noundef %6)
  %div4 = sdiv i32 %call3, 16
  store i32 %div4, ptr %h, align 4
  %7 = load i32, ptr %w, align 4
  %8 = load ptr, ptr %t.addr, align 8
  %width = getelementptr inbounds %struct.QemuTextConsole, ptr %8, i32 0, i32 1
  %9 = load i32, ptr %width, align 8
  %cmp5 = icmp eq i32 %7, %9
  br i1 %cmp5, label %land.lhs.true, label %if.end8

land.lhs.true:                                    ; preds = %if.end
  %10 = load i32, ptr %h, align 4
  %11 = load ptr, ptr %t.addr, align 8
  %height = getelementptr inbounds %struct.QemuTextConsole, ptr %11, i32 0, i32 2
  %12 = load i32, ptr %height, align 4
  %cmp6 = icmp eq i32 %10, %12
  br i1 %cmp6, label %if.then7, label %if.end8

if.then7:                                         ; preds = %land.lhs.true
  br label %return

if.end8:                                          ; preds = %land.lhs.true, %if.end
  %13 = load ptr, ptr %t.addr, align 8
  %width9 = getelementptr inbounds %struct.QemuTextConsole, ptr %13, i32 0, i32 1
  %14 = load i32, ptr %width9, align 8
  store i32 %14, ptr %last_width, align 4
  %15 = load i32, ptr %w, align 4
  %16 = load ptr, ptr %t.addr, align 8
  %width10 = getelementptr inbounds %struct.QemuTextConsole, ptr %16, i32 0, i32 1
  store i32 %15, ptr %width10, align 8
  %17 = load i32, ptr %h, align 4
  %18 = load ptr, ptr %t.addr, align 8
  %height11 = getelementptr inbounds %struct.QemuTextConsole, ptr %18, i32 0, i32 2
  store i32 %17, ptr %height11, align 4
  %19 = load ptr, ptr %t.addr, align 8
  %width12 = getelementptr inbounds %struct.QemuTextConsole, ptr %19, i32 0, i32 1
  %20 = load i32, ptr %width12, align 8
  store i32 %20, ptr %_a4, align 4
  %21 = load i32, ptr %last_width, align 4
  store i32 %21, ptr %_b5, align 4
  %22 = load i32, ptr %_a4, align 4
  %23 = load i32, ptr %_b5, align 4
  %cmp13 = icmp slt i32 %22, %23
  br i1 %cmp13, label %cond.true, label %cond.false

cond.true:                                        ; preds = %if.end8
  %24 = load i32, ptr %_a4, align 4
  br label %cond.end

cond.false:                                       ; preds = %if.end8
  %25 = load i32, ptr %_b5, align 4
  br label %cond.end

cond.end:                                         ; preds = %cond.false, %cond.true
  %cond = phi i32 [ %24, %cond.true ], [ %25, %cond.false ]
  store i32 %cond, ptr %tmp, align 4
  %26 = load i32, ptr %tmp, align 4
  store i32 %26, ptr %w1, align 4
  %27 = load ptr, ptr %t.addr, align 8
  %width14 = getelementptr inbounds %struct.QemuTextConsole, ptr %27, i32 0, i32 1
  %28 = load i32, ptr %width14, align 8
  %29 = load ptr, ptr %t.addr, align 8
  %total_height = getelementptr inbounds %struct.QemuTextConsole, ptr %29, i32 0, i32 3
  %30 = load i32, ptr %total_height, align 8
  %mul = mul i32 %28, %30
  %add = add i32 %mul, 1
  %conv = sext i32 %add to i64
  %call15 = call noalias ptr @g_malloc_n(i64 noundef %conv, i64 noundef 3) #8
  store ptr %call15, ptr %cells, align 8
  store i32 0, ptr %y, align 4
  br label %for.cond

for.cond:                                         ; preds = %for.inc61, %cond.end
  %31 = load i32, ptr %y, align 4
  %32 = load ptr, ptr %t.addr, align 8
  %total_height16 = getelementptr inbounds %struct.QemuTextConsole, ptr %32, i32 0, i32 3
  %33 = load i32, ptr %total_height16, align 8
  %cmp17 = icmp slt i32 %31, %33
  br i1 %cmp17, label %for.body, label %for.end63

for.body:                                         ; preds = %for.cond
  %34 = load ptr, ptr %cells, align 8
  %35 = load i32, ptr %y, align 4
  %36 = load ptr, ptr %t.addr, align 8
  %width19 = getelementptr inbounds %struct.QemuTextConsole, ptr %36, i32 0, i32 1
  %37 = load i32, ptr %width19, align 8
  %mul20 = mul i32 %35, %37
  %idxprom = sext i32 %mul20 to i64
  %arrayidx = getelementptr %struct.TextCell, ptr %34, i64 %idxprom
  store ptr %arrayidx, ptr %c, align 8
  %38 = load i32, ptr %w1, align 4
  %cmp21 = icmp sgt i32 %38, 0
  br i1 %cmp21, label %if.then23, label %if.end33

if.then23:                                        ; preds = %for.body
  %39 = load ptr, ptr %t.addr, align 8
  %cells24 = getelementptr inbounds %struct.QemuTextConsole, ptr %39, i32 0, i32 9
  %40 = load ptr, ptr %cells24, align 8
  %41 = load i32, ptr %y, align 4
  %42 = load i32, ptr %last_width, align 4
  %mul25 = mul i32 %41, %42
  %idxprom26 = sext i32 %mul25 to i64
  %arrayidx27 = getelementptr %struct.TextCell, ptr %40, i64 %idxprom26
  store ptr %arrayidx27, ptr %c1, align 8
  store i32 0, ptr %x, align 4
  br label %for.cond28

for.cond28:                                       ; preds = %for.inc, %if.then23
  %43 = load i32, ptr %x, align 4
  %44 = load i32, ptr %w1, align 4
  %cmp29 = icmp slt i32 %43, %44
  br i1 %cmp29, label %for.body31, label %for.end

for.body31:                                       ; preds = %for.cond28
  %45 = load ptr, ptr %c, align 8
  %incdec.ptr = getelementptr %struct.TextCell, ptr %45, i32 1
  store ptr %incdec.ptr, ptr %c, align 8
  %46 = load ptr, ptr %c1, align 8
  %incdec.ptr32 = getelementptr %struct.TextCell, ptr %46, i32 1
  store ptr %incdec.ptr32, ptr %c1, align 8
  call void @llvm.memcpy.p0.p0.i64(ptr align 1 %45, ptr align 1 %46, i64 3, i1 false)
  br label %for.inc

for.inc:                                          ; preds = %for.body31
  %47 = load i32, ptr %x, align 4
  %inc = add i32 %47, 1
  store i32 %inc, ptr %x, align 4
  br label %for.cond28, !llvm.loop !11

for.end:                                          ; preds = %for.cond28
  br label %if.end33

if.end33:                                         ; preds = %for.end, %for.body
  %48 = load i32, ptr %w1, align 4
  store i32 %48, ptr %x, align 4
  br label %for.cond34

for.cond34:                                       ; preds = %for.inc58, %if.end33
  %49 = load i32, ptr %x, align 4
  %50 = load ptr, ptr %t.addr, align 8
  %width35 = getelementptr inbounds %struct.QemuTextConsole, ptr %50, i32 0, i32 1
  %51 = load i32, ptr %width35, align 8
  %cmp36 = icmp slt i32 %49, %51
  br i1 %cmp36, label %for.body38, label %for.end60

for.body38:                                       ; preds = %for.cond34
  %52 = load ptr, ptr %c, align 8
  %ch = getelementptr inbounds %struct.TextCell, ptr %52, i32 0, i32 0
  store i8 32, ptr %ch, align 1
  %53 = load ptr, ptr %c, align 8
  %t_attrib = getelementptr inbounds %struct.TextCell, ptr %53, i32 0, i32 1
  %bf.load = load i16, ptr %.compoundliteral, align 1
  %bf.clear = and i16 %bf.load, -16
  %bf.set = or i16 %bf.clear, 7
  store i16 %bf.set, ptr %.compoundliteral, align 1
  %bf.load39 = load i16, ptr %.compoundliteral, align 1
  %bf.clear40 = and i16 %bf.load39, -241
  %bf.set41 = or i16 %bf.clear40, 0
  store i16 %bf.set41, ptr %.compoundliteral, align 1
  %bf.load42 = load i16, ptr %.compoundliteral, align 1
  %bf.clear43 = and i16 %bf.load42, -257
  %bf.set44 = or i16 %bf.clear43, 0
  store i16 %bf.set44, ptr %.compoundliteral, align 1
  %bf.load45 = load i16, ptr %.compoundliteral, align 1
  %bf.clear46 = and i16 %bf.load45, -513
  %bf.set47 = or i16 %bf.clear46, 0
  store i16 %bf.set47, ptr %.compoundliteral, align 1
  %bf.load48 = load i16, ptr %.compoundliteral, align 1
  %bf.clear49 = and i16 %bf.load48, -1025
  %bf.set50 = or i16 %bf.clear49, 0
  store i16 %bf.set50, ptr %.compoundliteral, align 1
  %bf.load51 = load i16, ptr %.compoundliteral, align 1
  %bf.clear52 = and i16 %bf.load51, -2049
  %bf.set53 = or i16 %bf.clear52, 0
  store i16 %bf.set53, ptr %.compoundliteral, align 1
  %bf.load54 = load i16, ptr %.compoundliteral, align 1
  %bf.clear55 = and i16 %bf.load54, -4097
  %bf.set56 = or i16 %bf.clear55, 0
  store i16 %bf.set56, ptr %.compoundliteral, align 1
  call void @llvm.memcpy.p0.p0.i64(ptr align 1 %t_attrib, ptr align 1 %.compoundliteral, i64 2, i1 false)
  %54 = load ptr, ptr %c, align 8
  %incdec.ptr57 = getelementptr %struct.TextCell, ptr %54, i32 1
  store ptr %incdec.ptr57, ptr %c, align 8
  br label %for.inc58

for.inc58:                                        ; preds = %for.body38
  %55 = load i32, ptr %x, align 4
  %inc59 = add i32 %55, 1
  store i32 %inc59, ptr %x, align 4
  br label %for.cond34, !llvm.loop !12

for.end60:                                        ; preds = %for.cond34
  br label %for.inc61

for.inc61:                                        ; preds = %for.end60
  %56 = load i32, ptr %y, align 4
  %inc62 = add i32 %56, 1
  store i32 %inc62, ptr %y, align 4
  br label %for.cond, !llvm.loop !13

for.end63:                                        ; preds = %for.cond
  %57 = load ptr, ptr %t.addr, align 8
  %cells64 = getelementptr inbounds %struct.QemuTextConsole, ptr %57, i32 0, i32 9
  %58 = load ptr, ptr %cells64, align 8
  call void @g_free(ptr noundef %58)
  %59 = load ptr, ptr %cells, align 8
  %60 = load ptr, ptr %t.addr, align 8
  %cells65 = getelementptr inbounds %struct.QemuTextConsole, ptr %60, i32 0, i32 9
  store ptr %59, ptr %cells65, align 8
  br label %return

return:                                           ; preds = %for.end63, %if.then7
  ret void
}