; Function Attrs: nounwind sspstrong uwtable
define internal fastcc void @text_console_resize(ptr noundef %t) unnamed_addr #0 {
entry:
  %call.i = tail call ptr @object_dynamic_cast_assert(ptr noundef %t, ptr noundef nonnull @.str.3, ptr noundef nonnull @.str.4, i32 noundef 12, ptr noundef nonnull @__func__.QEMU_CONSOLE) #12
  %scanout = getelementptr inbounds nuw i8, ptr %call.i, i64 64
  %0 = load i32, ptr %scanout, align 8
  %cmp = icmp eq i32 %0, 1
  br i1 %cmp, label %if.end, label %if.else

if.else:                                          ; preds = %entry
  tail call void @__assert_fail(ptr noundef nonnull @.str.6, ptr noundef nonnull @.str.7, i32 noundef 383, ptr noundef nonnull @__PRETTY_FUNCTION__.text_console_resize) #14
  unreachable

if.end:                                           ; preds = %entry
  %surface = getelementptr inbounds nuw i8, ptr %call.i, i64 56
  %1 = load ptr, ptr %surface, align 8
  %.val = load ptr, ptr %1, align 8
  %call.i41 = tail call i32 @pixman_image_get_width(ptr noundef %.val) #12
  %div = sdiv i32 %call.i41, 8
  %2 = load ptr, ptr %surface, align 8
  %.val40 = load ptr, ptr %2, align 8
  %call.i42 = tail call i32 @pixman_image_get_height(ptr noundef %.val40) #12
  %div4 = sdiv i32 %call.i42, 16
  %width = getelementptr inbounds nuw i8, ptr %t, i64 232
  %3 = load i32, ptr %width, align 8
  %cmp5 = icmp eq i32 %div, %3
  br i1 %cmp5, label %land.lhs.true, label %if.end8

land.lhs.true:                                    ; preds = %if.end
  %height = getelementptr inbounds nuw i8, ptr %t, i64 236
  %4 = load i32, ptr %height, align 4
  %cmp6 = icmp eq i32 %div4, %4
  br i1 %cmp6, label %return, label %if.end8

if.end8:                                          ; preds = %land.lhs.true, %if.end
  store i32 %div, ptr %width, align 8
  %height11 = getelementptr inbounds nuw i8, ptr %t, i64 236
  store i32 %div4, ptr %height11, align 4
  %cond = tail call i32 @llvm.smin.i32(i32 %div, i32 %3)
  %total_height = getelementptr inbounds nuw i8, ptr %t, i64 240
  %5 = load i32, ptr %total_height, align 8
  %mul = mul i32 %5, %div
  %add = add i32 %mul, 1
  %conv = sext i32 %add to i64
  %call15 = tail call noalias ptr @g_malloc_n(i64 noundef %conv, i64 noundef 3) #13
  %6 = load i32, ptr %total_height, align 8
  %cmp1750 = icmp sgt i32 %6, 0
  br i1 %cmp1750, label %for.body.lr.ph, label %for.end63

for.body.lr.ph:                                   ; preds = %if.end8
  %cmp21 = icmp sgt i32 %cond, 0
  %cells24 = getelementptr inbounds nuw i8, ptr %t, i64 264
  %.pre = load i32, ptr %width, align 8
  br i1 %cmp21, label %for.body.us, label %for.body.lr.ph.split

for.body.us:                                      ; preds = %for.body.lr.ph, %for.inc61.us
  %7 = phi i32 [ %11, %for.inc61.us ], [ %6, %for.body.lr.ph ]
  %8 = phi i32 [ %12, %for.inc61.us ], [ %.pre, %for.body.lr.ph ]
  %indvars.iv81 = phi i64 [ %indvars.iv.next82, %for.inc61.us ], [ 0, %for.body.lr.ph ]
  %.compoundliteral.sroa.0.052.us = phi i16 [ %.compoundliteral.sroa.0.1.lcssa.us, %for.inc61.us ], [ undef, %for.body.lr.ph ]
  %9 = trunc nuw nsw i64 %indvars.iv81 to i32
  %mul20.us = mul i32 %8, %9
  %idxprom.us = sext i32 %mul20.us to i64
  %arrayidx.us = getelementptr %struct.TextCell, ptr %call15, i64 %idxprom.us
  %10 = load ptr, ptr %cells24, align 8
  %mul25.us = mul i32 %3, %9
  %idxprom26.us = sext i32 %mul25.us to i64
  %arrayidx27.us = getelementptr %struct.TextCell, ptr %10, i64 %idxprom26.us
  br label %for.body31.us

for.inc61.us.loopexit:                            ; preds = %for.body38.us
  %.pre83 = load i32, ptr %total_height, align 8
  br label %for.inc61.us

for.inc61.us:                                     ; preds = %for.inc61.us.loopexit, %if.end33.loopexit.us
  %11 = phi i32 [ %7, %if.end33.loopexit.us ], [ %.pre83, %for.inc61.us.loopexit ]
  %12 = phi i32 [ %8, %if.end33.loopexit.us ], [ %14, %for.inc61.us.loopexit ]
  %.compoundliteral.sroa.0.1.lcssa.us = phi i16 [ %.compoundliteral.sroa.0.052.us, %if.end33.loopexit.us ], [ %bf.set.us, %for.inc61.us.loopexit ]
  %indvars.iv.next82 = add nuw nsw i64 %indvars.iv81, 1
  %13 = sext i32 %11 to i64
  %cmp17.us = icmp slt i64 %indvars.iv.next82, %13
  br i1 %cmp17.us, label %for.body.us, label %for.end63, !llvm.loop !12

for.body38.us:                                    ; preds = %for.body38.us.preheader, %for.body38.us
  %c.248.us = phi ptr [ %incdec.ptr57.us, %for.body38.us ], [ %incdec.ptr.us, %for.body38.us.preheader ]
  %x.147.us = phi i32 [ %inc59.us, %for.body38.us ], [ %cond, %for.body38.us.preheader ]
  store i8 32, ptr %c.248.us, align 1
  %t_attrib.us = getelementptr inbounds nuw i8, ptr %c.248.us, i64 1
  store i16 %bf.set.us, ptr %t_attrib.us, align 1
  %incdec.ptr57.us = getelementptr i8, ptr %c.248.us, i64 3
  %inc59.us = add nuw nsw i32 %x.147.us, 1
  %14 = load i32, ptr %width, align 8
  %cmp36.us = icmp slt i32 %inc59.us, %14
  br i1 %cmp36.us, label %for.body38.us, label %for.inc61.us.loopexit, !llvm.loop !13

for.body31.us:                                    ; preds = %for.body31.us, %for.body.us
  %c.145.us = phi ptr [ %arrayidx.us, %for.body.us ], [ %incdec.ptr.us, %for.body31.us ]
  %c1.044.us = phi ptr [ %arrayidx27.us, %for.body.us ], [ %incdec.ptr32.us, %for.body31.us ]
  %x.043.us = phi i32 [ 0, %for.body.us ], [ %inc.us, %for.body31.us ]
  %incdec.ptr.us = getelementptr i8, ptr %c.145.us, i64 3
  %incdec.ptr32.us = getelementptr i8, ptr %c1.044.us, i64 3
  tail call void @llvm.memcpy.p0.p0.i64(ptr noundef nonnull align 1 dereferenceable(3) %c.145.us, ptr noundef nonnull align 1 dereferenceable(3) %c1.044.us, i64 3, i1 false)
  %inc.us = add nuw nsw i32 %x.043.us, 1
  %exitcond80.not = icmp eq i32 %inc.us, %cond
  br i1 %exitcond80.not, label %if.end33.loopexit.us, label %for.body31.us, !llvm.loop !14

if.end33.loopexit.us:                             ; preds = %for.body31.us
  %cmp3646.us = icmp slt i32 %cond, %8
  br i1 %cmp3646.us, label %for.body38.us.preheader, label %for.inc61.us

for.body38.us.preheader:                          ; preds = %if.end33.loopexit.us
  %15 = and i16 %.compoundliteral.sroa.0.052.us, -8192
  %bf.set.us = or disjoint i16 %15, 7
  br label %for.body38.us

for.body.lr.ph.split:                             ; preds = %for.body.lr.ph
  %16 = icmp slt i32 %cond, %.pre
  br i1 %16, label %for.body.lr.ph.split.split.us, label %for.end63

for.body.lr.ph.split.split.us:                    ; preds = %for.body.lr.ph.split
  %wide.trip.count = zext nneg i32 %6 to i64
  br label %for.body.us53

for.body.us53:                                    ; preds = %for.cond34.for.inc61_crit_edge.us75, %for.body.lr.ph.split.split.us
  %indvars.iv = phi i64 [ %indvars.iv.next, %for.cond34.for.inc61_crit_edge.us75 ], [ 0, %for.body.lr.ph.split.split.us ]
  %17 = trunc nuw nsw i64 %indvars.iv to i32
  %mul20.us56 = mul i32 %.pre, %17
  %idxprom.us57 = sext i32 %mul20.us56 to i64
  %arrayidx.us58 = getelementptr %struct.TextCell, ptr %call15, i64 %idxprom.us57
  br label %for.body38.us64

for.body38.us64:                                  ; preds = %for.body.us53, %for.body38.us64
  %c.248.us66 = phi ptr [ %arrayidx.us58, %for.body.us53 ], [ %incdec.ptr57.us71, %for.body38.us64 ]
  %x.147.us67 = phi i32 [ %cond, %for.body.us53 ], [ %inc59.us72, %for.body38.us64 ]
  store i8 32, ptr %c.248.us66, align 1
  %t_attrib.us68 = getelementptr inbounds nuw i8, ptr %c.248.us66, i64 1
  store i16 7, ptr %t_attrib.us68, align 1
  %incdec.ptr57.us71 = getelementptr i8, ptr %c.248.us66, i64 3
  %inc59.us72 = add nsw i32 %x.147.us67, 1
  %cmp36.us73 = icmp slt i32 %inc59.us72, %.pre
  br i1 %cmp36.us73, label %for.body38.us64, label %for.cond34.for.inc61_crit_edge.us75, !llvm.loop !13

for.cond34.for.inc61_crit_edge.us75:              ; preds = %for.body38.us64
  %indvars.iv.next = add nuw nsw i64 %indvars.iv, 1
  %exitcond.not = icmp eq i64 %indvars.iv.next, %wide.trip.count
  br i1 %exitcond.not, label %for.end63, label %for.body.us53, !llvm.loop !12

for.end63:                                        ; preds = %for.cond34.for.inc61_crit_edge.us75, %for.inc61.us, %for.body.lr.ph.split, %if.end8
  %cells64 = getelementptr inbounds nuw i8, ptr %t, i64 264
  %18 = load ptr, ptr %cells64, align 8
  tail call void @g_free(ptr noundef %18) #12
  store ptr %call15, ptr %cells64, align 8
  br label %return

return:                                           ; preds = %land.lhs.true, %for.end63
  ret void
}